target datalayout = "e-m:e-p270:32:32-p271:32:32-p272:64:64-i64:64-i128:128-f80:128-n8:16:32:64-S128"
target triple = "x86_64-pc-linux-gnu"

%struct.prov_aes_xts_ctx_st = type { %struct.prov_cipher_ctx_st, %union.anon.0, %union.anon.0, %struct.xts128_context, ptr, %union.anon.1 }
%struct.prov_cipher_ctx_st = type { [16 x i8], [16 x i8], [16 x i8], ptr, %union.anon, i32, i64, i64, i64, i64, i32, i8, i32, ptr, i32, i64, i32, i64, i32, ptr, ptr, ptr }
%union.anon = type { ptr }
%union.anon.0 = type { double, [240 x i8] }
%struct.xts128_context = type { ptr, ptr, ptr, ptr }
%union.anon.1 = type { i32 }
%struct.prov_cipher_hw_st = type { ptr, ptr, ptr }
%struct.ossl_param_st = type { ptr, i32, ptr, i64, i64 }

@.str = private unnamed_addr constant [62 x i8] c"../openssl/providers/implementations/ciphers/cipher_aes_xts.c\00", align 1
@__func__.aes_xts_init = private unnamed_addr constant [13 x i8] c"aes_xts_init\00", align 1
@ossl_aes_xts_allow_insecure_decrypt = external constant i32, align 4
@__func__.aes_xts_check_keys_differ = private unnamed_addr constant [26 x i8] c"aes_xts_check_keys_differ\00", align 1
@.str.1 = private unnamed_addr constant [7 x i8] c"keylen\00", align 1
@__func__.aes_xts_set_ctx_params = private unnamed_addr constant [23 x i8] c"aes_xts_set_ctx_params\00", align 1

; Function Attrs: inlinehint nounwind uwtable
define internal i32 @ossl_param_is_empty(ptr noundef %0) #3 {
  %2 = alloca ptr, align 8
  store ptr %0, ptr %2, align 8, !tbaa !11
  %3 = load ptr, ptr %2, align 8, !tbaa !11
  %4 = icmp eq ptr %3, null
  br i1 %4, label %10, label %5

5:                                                ; preds = %1
  %6 = load ptr, ptr %2, align 8, !tbaa !11
  %7 = getelementptr inbounds nuw %struct.ossl_param_st, ptr %6, i32 0, i32 0
  %8 = load ptr, ptr %7, align 8, !tbaa !35
  %9 = icmp eq ptr %8, null
  br label %10

10:                                               ; preds = %5, %1
  %11 = phi i1 [ true, %1 ], [ %9, %5 ]
  %12 = zext i1 %11 to i32
  ret i32 %12
}

; Function Attrs: nounwind uwtable
define internal i32 @aes_xts_set_ctx_params(ptr noundef %0, ptr noundef %1) #0 {
  %3 = alloca i32, align 4
  %4 = alloca ptr, align 8
  %5 = alloca ptr, align 8
  %6 = alloca ptr, align 8
  %7 = alloca ptr, align 8
  %8 = alloca i32, align 4
  %9 = alloca i64, align 8
  store ptr %0, ptr %4, align 8, !tbaa !3
  store ptr %1, ptr %5, align 8, !tbaa !11
  call void @llvm.lifetime.start.p0(i64 8, ptr %6) #4
  %10 = load ptr, ptr %4, align 8, !tbaa !3
  store ptr %10, ptr %6, align 8, !tbaa !29
  call void @llvm.lifetime.start.p0(i64 8, ptr %7) #4
  %11 = load ptr, ptr %5, align 8, !tbaa !11
  %12 = call i32 @ossl_param_is_empty(ptr noundef %11)
  %13 = icmp ne i32 %12, 0
  br i1 %13, label %14, label %15

14:                                               ; preds = %2
  store i32 1, ptr %3, align 4
  store i32 1, ptr %8, align 4
  br label %37

15:                                               ; preds = %2
  %16 = load ptr, ptr %5, align 8, !tbaa !11
  %17 = call ptr @OSSL_PARAM_locate_const(ptr noundef %16, ptr noundef @.str.1)
  store ptr %17, ptr %7, align 8, !tbaa !11
  %18 = load ptr, ptr %7, align 8, !tbaa !11
  %19 = icmp ne ptr %18, null
  br i1 %19, label %20, label %36

20:                                               ; preds = %15
  call void @llvm.lifetime.start.p0(i64 8, ptr %9) #4
  %21 = load ptr, ptr %7, align 8, !tbaa !11
  %22 = call i32 @OSSL_PARAM_get_size_t(ptr noundef %21, ptr noundef %9)
  %23 = icmp ne i32 %22, 0
  br i1 %23, label %25, label %24

24:                                               ; preds = %20
  call void @ERR_new()
  call void @ERR_set_debug(ptr noundef @.str, i32 noundef 268, ptr noundef @__func__.aes_xts_set_ctx_params)
  call void (i32, i32, ptr, ...) @ERR_set_error(i32 noundef 57, i32 noundef 103, ptr noundef null)
  store i32 0, ptr %3, align 4
  store i32 1, ptr %8, align 4
  br label %33

25:                                               ; preds = %20
  %26 = load i64, ptr %9, align 8, !tbaa !9
  %27 = load ptr, ptr %6, align 8, !tbaa !29
  %28 = getelementptr inbounds nuw %struct.prov_cipher_ctx_st, ptr %27, i32 0, i32 6
  %29 = load i64, ptr %28, align 8, !tbaa !31
  %30 = icmp ne i64 %26, %29
  br i1 %30, label %31, label %32

31:                                               ; preds = %25
  store i32 0, ptr %3, align 4
  store i32 1, ptr %8, align 4
  br label %33

32:                                               ; preds = %25
  store i32 0, ptr %8, align 4
  br label %33

33:                                               ; preds = %32, %31, %24
  call void @llvm.lifetime.end.p0(i64 8, ptr %9) #4
  %34 = load i32, ptr %8, align 4
  switch i32 %34, label %37 [
    i32 0, label %35
  ]

35:                                               ; preds = %33
  br label %36

36:                                               ; preds = %35, %15
  store i32 1, ptr %3, align 4
  store i32 1, ptr %8, align 4
  br label %37

37:                                               ; preds = %36, %33, %14
  call void @llvm.lifetime.end.p0(i64 8, ptr %7) #4
  call void @llvm.lifetime.end.p0(i64 8, ptr %6) #4
  %38 = load i32, ptr %3, align 4
  ret i32 %38
}

; Function Attrs: nounwind uwtable
define internal i32 @aes_xts_check_keys_differ(ptr noundef %0, i64 noundef %1, i32 noundef %2) #0 {
  %4 = alloca i32, align 4
  %5 = alloca ptr, align 8
  %6 = alloca i64, align 8
  %7 = alloca i32, align 4
  store ptr %0, ptr %5, align 8, !tbaa !7
  store i64 %1, ptr %6, align 8, !tbaa !9
  store i32 %2, ptr %7, align 4, !tbaa !32
  %8 = load i32, ptr @ossl_aes_xts_allow_insecure_decrypt, align 4, !tbaa !32
  %9 = icmp ne i32 %8, 0
  br i1 %9, label %10, label %13

10:                                               ; preds = %3
  %11 = load i32, ptr %7, align 4, !tbaa !32
  %12 = icmp ne i32 %11, 0
  br i1 %12, label %13, label %22

13:                                               ; preds = %10, %3
  %14 = load ptr, ptr %5, align 8, !tbaa !7
  %15 = load ptr, ptr %5, align 8, !tbaa !7
  %16 = load i64, ptr %6, align 8, !tbaa !9
  %17 = getelementptr inbounds nuw i8, ptr %15, i64 %16
  %18 = load i64, ptr %6, align 8, !tbaa !9
  %19 = call i32 @CRYPTO_memcmp(ptr noundef %14, ptr noundef %17, i64 noundef %18)
  %20 = icmp eq i32 %19, 0
  br i1 %20, label %21, label %22

21:                                               ; preds = %13
  call void @ERR_new()
  call void @ERR_set_debug(ptr noundef @.str, i32 noundef 59, ptr noundef @__func__.aes_xts_check_keys_differ)
  call void (i32, i32, ptr, ...) @ERR_set_error(i32 noundef 57, i32 noundef 149, ptr noundef null)
  store i32 0, ptr %4, align 4
  br label %23

22:                                               ; preds = %13, %10
  store i32 1, ptr %4, align 4
  br label %23

23:                                               ; preds = %22, %21
  %24 = load i32, ptr %4, align 4
  ret i32 %24
}

; Function Attrs: nounwind uwtable
define internal i32 @aes_xts_init(ptr noundef %0, ptr noundef %1, i64 noundef %2, ptr noundef %3, i64 noundef %4, ptr noundef %5, i32 noundef %6) #0 {
  %8 = alloca i32, align 4
  %9 = alloca ptr, align 8
  %10 = alloca ptr, align 8
  %11 = alloca i64, align 8
  %12 = alloca ptr, align 8
  %13 = alloca i64, align 8
  %14 = alloca ptr, align 8
  %15 = alloca i32, align 4
  %16 = alloca ptr, align 8
  %17 = alloca ptr, align 8
  %18 = alloca i32, align 4
  store ptr %0, ptr %9, align 8, !tbaa !3
  store ptr %1, ptr %10, align 8, !tbaa !7
  store i64 %2, ptr %11, align 8, !tbaa !9
  store ptr %3, ptr %12, align 8, !tbaa !7
  store i64 %4, ptr %13, align 8, !tbaa !9
  store ptr %5, ptr %14, align 8, !tbaa !11
  store i32 %6, ptr %15, align 4, !tbaa !32
  call void @llvm.lifetime.start.p0(i64 8, ptr %16) #4
  %19 = load ptr, ptr %9, align 8, !tbaa !3
  store ptr %19, ptr %16, align 8, !tbaa !15
  call void @llvm.lifetime.start.p0(i64 8, ptr %17) #4
  %20 = load ptr, ptr %16, align 8, !tbaa !15
  %21 = getelementptr inbounds nuw %struct.prov_aes_xts_ctx_st, ptr %20, i32 0, i32 0
  store ptr %21, ptr %17, align 8, !tbaa !29
  %22 = call i32 @ossl_prov_is_running()
  %23 = icmp ne i32 %22, 0
  br i1 %23, label %25, label %24

24:                                               ; preds = %7
  store i32 0, ptr %8, align 4
  store i32 1, ptr %18, align 4
  br label %80

25:                                               ; preds = %7
  %26 = load i32, ptr %15, align 4, !tbaa !32
  %27 = load ptr, ptr %17, align 8, !tbaa !29
  %28 = getelementptr inbounds nuw %struct.prov_cipher_ctx_st, ptr %27, i32 0, i32 11
  %29 = trunc i32 %26 to i8
  %30 = load i8, ptr %28, align 4
  %31 = and i8 %29, 1
  %32 = shl i8 %31, 1
  %33 = and i8 %30, -3
  %34 = or i8 %33, %32
  store i8 %34, ptr %28, align 4
  %35 = load ptr, ptr %12, align 8, !tbaa !7
  %36 = icmp ne ptr %35, null
  br i1 %36, label %37, label %45

37:                                               ; preds = %25
  %38 = load ptr, ptr %9, align 8, !tbaa !3
  %39 = load ptr, ptr %12, align 8, !tbaa !7
  %40 = load i64, ptr %13, align 8, !tbaa !9
  %41 = call i32 @ossl_cipher_generic_initiv(ptr noundef %38, ptr noundef %39, i64 noundef %40)
  %42 = icmp ne i32 %41, 0
  br i1 %42, label %44, label %43

43:                                               ; preds = %37
  store i32 0, ptr %8, align 4
  store i32 1, ptr %18, align 4
  br label %80

44:                                               ; preds = %37
  br label %45

45:                                               ; preds = %44, %25
  %46 = load ptr, ptr %10, align 8, !tbaa !7
  %47 = icmp ne ptr %46, null
  br i1 %47, label %48, label %76

48:                                               ; preds = %45
  %49 = load i64, ptr %11, align 8, !tbaa !9
  %50 = load ptr, ptr %17, align 8, !tbaa !29
  %51 = getelementptr inbounds nuw %struct.prov_cipher_ctx_st, ptr %50, i32 0, i32 6
  %52 = load i64, ptr %51, align 8, !tbaa !31
  %53 = icmp ne i64 %49, %52
  br i1 %53, label %54, label %55

54:                                               ; preds = %48
  call void @ERR_new()
  call void @ERR_set_debug(ptr noundef @.str, i32 noundef 90, ptr noundef @__func__.aes_xts_init)
  call void (i32, i32, ptr, ...) @ERR_set_error(i32 noundef 57, i32 noundef 105, ptr noundef null)
  store i32 0, ptr %8, align 4
  store i32 1, ptr %18, align 4
  br label %80

55:                                               ; preds = %48
  %56 = load ptr, ptr %10, align 8, !tbaa !7
  %57 = load i64, ptr %11, align 8, !tbaa !9
  %58 = udiv i64 %57, 2
  %59 = load i32, ptr %15, align 4, !tbaa !32
  %60 = call i32 @aes_xts_check_keys_differ(ptr noundef %56, i64 noundef %58, i32 noundef %59)
  %61 = icmp ne i32 %60, 0
  br i1 %61, label %63, label %62

62:                                               ; preds = %55
  store i32 0, ptr %8, align 4
  store i32 1, ptr %18, align 4
  br label %80

63:                                               ; preds = %55
  %64 = load ptr, ptr %17, align 8, !tbaa !29
  %65 = getelementptr inbounds nuw %struct.prov_cipher_ctx_st, ptr %64, i32 0, i32 19
  %66 = load ptr, ptr %65, align 8, !tbaa !33
  %67 = getelementptr inbounds nuw %struct.prov_cipher_hw_st, ptr %66, i32 0, i32 0
  %68 = load ptr, ptr %67, align 8, !tbaa !34
  %69 = load ptr, ptr %17, align 8, !tbaa !29
  %70 = load ptr, ptr %10, align 8, !tbaa !7
  %71 = load i64, ptr %11, align 8, !tbaa !9
  %72 = call i32 %68(ptr noundef %69, ptr noundef %70, i64 noundef %71)
  %73 = icmp ne i32 %72, 0
  br i1 %73, label %75, label %74

74:                                               ; preds = %63
  store i32 0, ptr %8, align 4
  store i32 1, ptr %18, align 4
  br label %80

75:                                               ; preds = %63
  br label %76

76:                                               ; preds = %75, %45
  %77 = load ptr, ptr %17, align 8, !tbaa !29
  %78 = load ptr, ptr %14, align 8, !tbaa !11
  %79 = call i32 @aes_xts_set_ctx_params(ptr noundef %77, ptr noundef %78)
  store i32 %79, ptr %8, align 4
  store i32 1, ptr %18, align 4
  br label %80

80:                                               ; preds = %76, %74, %62, %54, %43, %24
  call void @llvm.lifetime.end.p0(i64 8, ptr %17) #4
  call void @llvm.lifetime.end.p0(i64 8, ptr %16) #4
  %81 = load i32, ptr %8, align 4
  ret i32 %81
}