; Function Attrs: nounwind uwtable
define internal fastcc range(i32 0, 2) i32 @aes_xts_init(ptr noundef %0, ptr noundef %1, i64 noundef %2, ptr noundef %3, i64 noundef %4, ptr noundef %5, i32 noundef range(i32 0, 2) %6) unnamed_addr #0 {
  %8 = alloca i64, align 8
  %9 = tail call i32 @ossl_prov_is_running() #4
  %.not = icmp eq i32 %9, 0
  br i1 %.not, label %aes_xts_set_ctx_params.exit, label %10

10:                                               ; preds = %7
  %11 = getelementptr inbounds nuw i8, ptr %0, i64 108
  %12 = trunc nuw nsw i32 %6 to i8
  %13 = load i8, ptr %11, align 4
  %14 = shl nuw nsw i8 %12, 1
  %15 = and i8 %13, -3
  %16 = or disjoint i8 %15, %14
  store i8 %16, ptr %11, align 4
  %.not23 = icmp eq ptr %3, null
  br i1 %.not23, label %19, label %17

17:                                               ; preds = %10
  %18 = tail call i32 @ossl_cipher_generic_initiv(ptr noundef nonnull %0, ptr noundef nonnull %3, i64 noundef %4) #4
  %.not24 = icmp eq i32 %18, 0
  br i1 %.not24, label %aes_xts_set_ctx_params.exit, label %19

19:                                               ; preds = %17, %10
  %.not25 = icmp eq ptr %1, null
  br i1 %.not25, label %38, label %20

20:                                               ; preds = %19
  %21 = getelementptr inbounds nuw i8, ptr %0, i64 72
  %22 = load i64, ptr %21, align 8, !tbaa !23
  %.not26 = icmp eq i64 %2, %22
  br i1 %.not26, label %24, label %23

23:                                               ; preds = %20
  tail call void @ERR_new() #4
  tail call void @ERR_set_debug(ptr noundef nonnull @.str, i32 noundef 90, ptr noundef nonnull @__func__.aes_xts_init) #4
  tail call void (i32, i32, ptr, ...) @ERR_set_error(i32 noundef 57, i32 noundef 105, ptr noundef null) #4
  br label %aes_xts_set_ctx_params.exit

24:                                               ; preds = %20
  %25 = load i32, ptr @ossl_aes_xts_allow_insecure_decrypt, align 4, !tbaa !24
  %26 = icmp eq i32 %25, 0
  %27 = icmp ne i32 %6, 0
  %or.cond.i = or i1 %27, %26
  br i1 %or.cond.i, label %28, label %33

28:                                               ; preds = %24
  %29 = lshr i64 %2, 1
  %30 = getelementptr inbounds nuw i8, ptr %1, i64 %29
  %31 = tail call i32 @CRYPTO_memcmp(ptr noundef nonnull %1, ptr noundef nonnull %30, i64 noundef range(i64 0, -9223372036854775808) %29) #4
  %32 = icmp eq i32 %31, 0
  br i1 %32, label %aes_xts_check_keys_differ.exit, label %33

aes_xts_check_keys_differ.exit:                   ; preds = %28
  tail call void @ERR_new() #4
  tail call void @ERR_set_debug(ptr noundef nonnull @.str, i32 noundef 59, ptr noundef nonnull @__func__.aes_xts_check_keys_differ) #4
  tail call void (i32, i32, ptr, ...) @ERR_set_error(i32 noundef 57, i32 noundef 149, ptr noundef null) #4
  br label %aes_xts_set_ctx_params.exit

33:                                               ; preds = %24, %28
  %34 = getelementptr inbounds nuw i8, ptr %0, i64 168
  %35 = load ptr, ptr %34, align 8, !tbaa !25
  %36 = load ptr, ptr %35, align 8, !tbaa !26
  %37 = tail call i32 %36(ptr noundef nonnull %0, ptr noundef nonnull %1, i64 noundef %2) #4
  %.not28 = icmp eq i32 %37, 0
  br i1 %.not28, label %aes_xts_set_ctx_params.exit, label %38

38:                                               ; preds = %33, %19
  %39 = icmp eq ptr %5, null
  br i1 %39, label %aes_xts_set_ctx_params.exit, label %ossl_param_is_empty.exit.i

ossl_param_is_empty.exit.i:                       ; preds = %38
  %40 = load ptr, ptr %5, align 8, !tbaa !21
  %.not.i = icmp eq ptr %40, null
  br i1 %.not.i, label %aes_xts_set_ctx_params.exit, label %41

41:                                               ; preds = %ossl_param_is_empty.exit.i
  %42 = tail call ptr @OSSL_PARAM_locate_const(ptr noundef nonnull %5, ptr noundef nonnull @.str.1) #4
  %.not9.i = icmp eq ptr %42, null
  br i1 %.not9.i, label %49, label %43

43:                                               ; preds = %41
  call void @llvm.lifetime.start.p0(i64 8, ptr nonnull %8) #4
  %44 = call i32 @OSSL_PARAM_get_size_t(ptr noundef nonnull %42, ptr noundef nonnull %8) #4
  %.not10.i = icmp eq i32 %44, 0
  br i1 %.not10.i, label %.critedge.i, label %45

.critedge.i:                                      ; preds = %43
  call void @ERR_new() #4
  call void @ERR_set_debug(ptr noundef nonnull @.str, i32 noundef 268, ptr noundef nonnull @__func__.aes_xts_set_ctx_params) #4
  call void (i32, i32, ptr, ...) @ERR_set_error(i32 noundef 57, i32 noundef 103, ptr noundef null) #4
  call void @llvm.lifetime.end.p0(i64 8, ptr nonnull %8) #4
  br label %aes_xts_set_ctx_params.exit

45:                                               ; preds = %43
  %46 = load i64, ptr %8, align 8, !tbaa !3
  %47 = getelementptr inbounds nuw i8, ptr %0, i64 72
  %48 = load i64, ptr %47, align 8, !tbaa !23
  %.not11.i = icmp eq i64 %46, %48
  call void @llvm.lifetime.end.p0(i64 8, ptr nonnull %8) #4
  br i1 %.not11.i, label %49, label %aes_xts_set_ctx_params.exit

49:                                               ; preds = %45, %41
  br label %aes_xts_set_ctx_params.exit

aes_xts_set_ctx_params.exit:                      ; preds = %49, %45, %.critedge.i, %ossl_param_is_empty.exit.i, %38, %aes_xts_check_keys_differ.exit, %33, %17, %7, %23
  %.0 = phi i32 [ 0, %23 ], [ 0, %7 ], [ 0, %17 ], [ 0, %aes_xts_check_keys_differ.exit ], [ 0, %33 ], [ 1, %49 ], [ 0, %45 ], [ 1, %ossl_param_is_empty.exit.i ], [ 0, %.critedge.i ], [ 1, %38 ]
  ret i32 %.0
}